target datalayout = "e-m:e-p270:32:32-p271:32:32-p272:64:64-i64:64-i128:128-f80:128-n8:16:32:64-S128"
target triple = "x86_64-pc-linux-gnu"

; Function Attrs: nounwind uwtable
define internal i32 @pixelize_avg16(ptr noundef %0, ptr noundef %1, i64 noundef %2, i64 noundef %3, i32 noundef %4, i32 noundef %5) #1 {
  %7 = alloca ptr, align 8
  %8 = alloca ptr, align 8
  %9 = alloca i64, align 8
  %10 = alloca i64, align 8
  %11 = alloca i32, align 4
  %12 = alloca i32, align 4
  %13 = alloca ptr, align 8
  %14 = alloca ptr, align 8
  %15 = alloca i64, align 8
  %16 = alloca i16, align 2
  %17 = alloca i32, align 4
  %18 = alloca i32, align 4
  %19 = alloca i32, align 4
  %20 = alloca i32, align 4
  %21 = alloca i32, align 4
  store ptr %0, ptr %7, align 8, !tbaa !53
  store ptr %1, ptr %8, align 8, !tbaa !53
  store i64 %2, ptr %9, align 8, !tbaa !51
  store i64 %3, ptr %10, align 8, !tbaa !51
  store i32 %4, ptr %11, align 4, !tbaa !37
  store i32 %5, ptr %12, align 4, !tbaa !37
  call void @llvm.lifetime.start.p0(i64 8, ptr %13) #5
  %22 = load ptr, ptr %7, align 8, !tbaa !53
  store ptr %22, ptr %13, align 8, !tbaa !75
  call void @llvm.lifetime.start.p0(i64 8, ptr %14) #5
  %23 = load ptr, ptr %8, align 8, !tbaa !53
  store ptr %23, ptr %14, align 8, !tbaa !75
  call void @llvm.lifetime.start.p0(i64 8, ptr %15) #5
  store i64 0, ptr %15, align 8, !tbaa !51
  call void @llvm.lifetime.start.p0(i64 2, ptr %16) #5
  call void @llvm.lifetime.start.p0(i64 4, ptr %17) #5
  store i32 0, ptr %17, align 4, !tbaa !37
  br label %24

24:                                               ; preds = %52, %6
  %25 = load i32, ptr %17, align 4, !tbaa !37
  %26 = load i32, ptr %12, align 4, !tbaa !37
  %27 = icmp slt i32 %25, %26
  br i1 %27, label %29, label %28

28:                                               ; preds = %24
  store i32 2, ptr %18, align 4
  call void @llvm.lifetime.end.p0(i64 4, ptr %17) #5
  br label %55

29:                                               ; preds = %24
  call void @llvm.lifetime.start.p0(i64 4, ptr %19) #5
  store i32 0, ptr %19, align 4, !tbaa !37
  br label %30

30:                                               ; preds = %44, %29
  %31 = load i32, ptr %19, align 4, !tbaa !37
  %32 = load i32, ptr %11, align 4, !tbaa !37
  %33 = icmp slt i32 %31, %32
  br i1 %33, label %35, label %34

34:                                               ; preds = %30
  store i32 5, ptr %18, align 4
  call void @llvm.lifetime.end.p0(i64 4, ptr %19) #5
  br label %47

35:                                               ; preds = %30
  %36 = load ptr, ptr %13, align 8, !tbaa !75
  %37 = load i32, ptr %19, align 4, !tbaa !37
  %38 = sext i32 %37 to i64
  %39 = getelementptr inbounds i16, ptr %36, i64 %38
  %40 = load i16, ptr %39, align 2, !tbaa !77
  %41 = zext i16 %40 to i64
  %42 = load i64, ptr %15, align 8, !tbaa !51
  %43 = add i64 %42, %41
  store i64 %43, ptr %15, align 8, !tbaa !51
  br label %44

44:                                               ; preds = %35
  %45 = load i32, ptr %19, align 4, !tbaa !37
  %46 = add nsw i32 %45, 1
  store i32 %46, ptr %19, align 4, !tbaa !37
  br label %30, !llvm.loop !79

47:                                               ; preds = %34
  %48 = load i64, ptr %9, align 8, !tbaa !51
  %49 = udiv i64 %48, 2
  %50 = load ptr, ptr %13, align 8, !tbaa !75
  %51 = getelementptr inbounds nuw i16, ptr %50, i64 %49
  store ptr %51, ptr %13, align 8, !tbaa !75
  br label %52

52:                                               ; preds = %47
  %53 = load i32, ptr %17, align 4, !tbaa !37
  %54 = add nsw i32 %53, 1
  store i32 %54, ptr %17, align 4, !tbaa !37
  br label %24, !llvm.loop !80

55:                                               ; preds = %28
  %56 = load i64, ptr %15, align 8, !tbaa !51
  %57 = load i32, ptr %11, align 4, !tbaa !37
  %58 = load i32, ptr %12, align 4, !tbaa !37
  %59 = mul nsw i32 %57, %58
  %60 = sext i32 %59 to i64
  %61 = udiv i64 %56, %60
  %62 = trunc i64 %61 to i16
  store i16 %62, ptr %16, align 2, !tbaa !77
  call void @llvm.lifetime.start.p0(i64 4, ptr %20) #5
  store i32 0, ptr %20, align 4, !tbaa !37
  br label %63

63:                                               ; preds = %88, %55
  %64 = load i32, ptr %20, align 4, !tbaa !37
  %65 = load i32, ptr %12, align 4, !tbaa !37
  %66 = icmp slt i32 %64, %65
  br i1 %66, label %68, label %67

67:                                               ; preds = %63
  store i32 8, ptr %18, align 4
  call void @llvm.lifetime.end.p0(i64 4, ptr %20) #5
  br label %91

68:                                               ; preds = %63
  call void @llvm.lifetime.start.p0(i64 4, ptr %21) #5
  store i32 0, ptr %21, align 4, !tbaa !37
  br label %69

69:                                               ; preds = %80, %68
  %70 = load i32, ptr %21, align 4, !tbaa !37
  %71 = load i32, ptr %11, align 4, !tbaa !37
  %72 = icmp slt i32 %70, %71
  br i1 %72, label %74, label %73

73:                                               ; preds = %69
  store i32 11, ptr %18, align 4
  call void @llvm.lifetime.end.p0(i64 4, ptr %21) #5
  br label %83

74:                                               ; preds = %69
  %75 = load i16, ptr %16, align 2, !tbaa !77
  %76 = load ptr, ptr %14, align 8, !tbaa !75
  %77 = load i32, ptr %21, align 4, !tbaa !37
  %78 = sext i32 %77 to i64
  %79 = getelementptr inbounds i16, ptr %76, i64 %78
  store i16 %75, ptr %79, align 2, !tbaa !77
  br label %80

80:                                               ; preds = %74
  %81 = load i32, ptr %21, align 4, !tbaa !37
  %82 = add nsw i32 %81, 1
  store i32 %82, ptr %21, align 4, !tbaa !37
  br label %69, !llvm.loop !81

83:                                               ; preds = %73
  %84 = load i64, ptr %10, align 8, !tbaa !51
  %85 = udiv i64 %84, 2
  %86 = load ptr, ptr %14, align 8, !tbaa !75
  %87 = getelementptr inbounds nuw i16, ptr %86, i64 %85
  store ptr %87, ptr %14, align 8, !tbaa !75
  br label %88

88:                                               ; preds = %83
  %89 = load i32, ptr %20, align 4, !tbaa !37
  %90 = add nsw i32 %89, 1
  store i32 %90, ptr %20, align 4, !tbaa !37
  br label %63, !llvm.loop !82

91:                                               ; preds = %67
  store i32 1, ptr %18, align 4
  call void @llvm.lifetime.end.p0(i64 2, ptr %16) #5
  call void @llvm.lifetime.end.p0(i64 8, ptr %15) #5
  call void @llvm.lifetime.end.p0(i64 8, ptr %14) #5
  call void @llvm.lifetime.end.p0(i64 8, ptr %13) #5
  ret i32 0
}