; Function Attrs: nofree norecurse nosync nounwind memory(argmem: readwrite) uwtable
define internal noundef i32 @pixelize_avg16(ptr noundef readonly captures(none) %0, ptr noundef writeonly captures(none) %1, i64 noundef %2, i64 noundef %3, i32 noundef %4, i32 noundef %5) #4 {
  %7 = icmp sgt i32 %5, 0
  br i1 %7, label %.preheader33.lr.ph, label %._crit_edge44

.preheader33.lr.ph:                               ; preds = %6
  %8 = icmp sgt i32 %4, 0
  %9 = lshr i64 %2, 1
  br i1 %8, label %.preheader33.us.preheader, label %._crit_edge44

.preheader33.us.preheader:                        ; preds = %.preheader33.lr.ph
  %wide.trip.count = zext nneg i32 %4 to i64
  br label %.preheader33.us

.preheader33.us:                                  ; preds = %.preheader33.us.preheader, %._crit_edge.us
  %.02838.us = phi i32 [ %16, %._crit_edge.us ], [ 0, %.preheader33.us.preheader ]
  %.02937.us = phi ptr [ %15, %._crit_edge.us ], [ %0, %.preheader33.us.preheader ]
  %.03036.us = phi i64 [ %14, %._crit_edge.us ], [ 0, %.preheader33.us.preheader ]
  br label %10

10:                                               ; preds = %.preheader33.us, %10
  %indvars.iv = phi i64 [ 0, %.preheader33.us ], [ %indvars.iv.next, %10 ]
  %.134.us = phi i64 [ %.03036.us, %.preheader33.us ], [ %14, %10 ]
  %11 = getelementptr inbounds nuw i16, ptr %.02937.us, i64 %indvars.iv
  %12 = load i16, ptr %11, align 2, !tbaa !66
  %13 = zext i16 %12 to i64
  %14 = add i64 %.134.us, %13
  %indvars.iv.next = add nuw nsw i64 %indvars.iv, 1
  %exitcond.not = icmp eq i64 %indvars.iv.next, %wide.trip.count
  br i1 %exitcond.not, label %._crit_edge.us, label %10, !llvm.loop !68

._crit_edge.us:                                   ; preds = %10
  %15 = getelementptr inbounds nuw i16, ptr %.02937.us, i64 %9
  %16 = add nuw nsw i32 %.02838.us, 1
  %exitcond49.not = icmp eq i32 %16, %5
  br i1 %exitcond49.not, label %._crit_edge39, label %.preheader33.us, !llvm.loop !69

._crit_edge39:                                    ; preds = %._crit_edge.us
  %17 = mul nuw nsw i32 %5, %4
  %18 = zext nneg i32 %17 to i64
  %19 = udiv i64 %14, %18
  %20 = trunc i64 %19 to i16
  %21 = lshr i64 %3, 1
  %wide.trip.count53 = zext nneg i32 %4 to i64
  br label %.preheader.us

.preheader.us:                                    ; preds = %._crit_edge39, %._crit_edge.us45
  %.02643.us = phi i32 [ %25, %._crit_edge.us45 ], [ 0, %._crit_edge39 ]
  %.03142.us = phi ptr [ %24, %._crit_edge.us45 ], [ %1, %._crit_edge39 ]
  br label %22

22:                                               ; preds = %.preheader.us, %22
  %indvars.iv50 = phi i64 [ 0, %.preheader.us ], [ %indvars.iv.next51, %22 ]
  %23 = getelementptr inbounds nuw i16, ptr %.03142.us, i64 %indvars.iv50
  store i16 %20, ptr %23, align 2, !tbaa !66
  %indvars.iv.next51 = add nuw nsw i64 %indvars.iv50, 1
  %exitcond54.not = icmp eq i64 %indvars.iv.next51, %wide.trip.count53
  br i1 %exitcond54.not, label %._crit_edge.us45, label %22, !llvm.loop !70

._crit_edge.us45:                                 ; preds = %22
  %24 = getelementptr inbounds nuw i16, ptr %.03142.us, i64 %21
  %25 = add nuw nsw i32 %.02643.us, 1
  %exitcond55.not = icmp eq i32 %25, %5
  br i1 %exitcond55.not, label %._crit_edge44, label %.preheader.us, !llvm.loop !71

._crit_edge44:                                    ; preds = %._crit_edge.us45, %.preheader33.lr.ph, %6
  ret i32 0
}